target datalayout = "e-m:e-p270:32:32-p271:32:32-p272:64:64-i64:64-i128:128-f80:128-n8:16:32:64-S128"
target triple = "x86_64-pc-linux-gnu"

@.str.5 = private unnamed_addr constant [7 x i8] c"Ripper\00", align 1
@rb_cObject = external global i64, align 8
@.str.6 = private unnamed_addr constant [8 x i8] c"Version\00", align 1
@.str.7 = private unnamed_addr constant [6 x i8] c"0.1.0\00", align 1
@.str.8 = private unnamed_addr constant [11 x i8] c"initialize\00", align 1
@.str.9 = private unnamed_addr constant [6 x i8] c"parse\00", align 1
@.str.10 = private unnamed_addr constant [7 x i8] c"column\00", align 1
@.str.11 = private unnamed_addr constant [9 x i8] c"filename\00", align 1
@.str.12 = private unnamed_addr constant [7 x i8] c"lineno\00", align 1
@.str.13 = private unnamed_addr constant [6 x i8] c"state\00", align 1
@.str.14 = private unnamed_addr constant [6 x i8] c"token\00", align 1
@.str.15 = private unnamed_addr constant [10 x i8] c"end_seen?\00", align 1
@.str.16 = private unnamed_addr constant [9 x i8] c"encoding\00", align 1
@.str.17 = private unnamed_addr constant [8 x i8] c"yydebug\00", align 1
@.str.18 = private unnamed_addr constant [9 x i8] c"yydebug=\00", align 1
@.str.19 = private unnamed_addr constant [13 x i8] c"debug_output\00", align 1
@.str.20 = private unnamed_addr constant [14 x i8] c"debug_output=\00", align 1
@.str.21 = private unnamed_addr constant [7 x i8] c"error?\00", align 1
@.str.22 = private unnamed_addr constant [14 x i8] c"dedent_string\00", align 1
@.str.23 = private unnamed_addr constant [15 x i8] c"lex_state_name\00", align 1
@.str.24 = private unnamed_addr constant [9 x i8] c"EXPR_BEG\00", align 1
@.str.25 = private unnamed_addr constant [9 x i8] c"EXPR_END\00", align 1
@.str.26 = private unnamed_addr constant [12 x i8] c"EXPR_ENDARG\00", align 1
@.str.27 = private unnamed_addr constant [11 x i8] c"EXPR_ENDFN\00", align 1
@.str.28 = private unnamed_addr constant [9 x i8] c"EXPR_ARG\00", align 1
@.str.29 = private unnamed_addr constant [12 x i8] c"EXPR_CMDARG\00", align 1
@.str.30 = private unnamed_addr constant [9 x i8] c"EXPR_MID\00", align 1
@.str.31 = private unnamed_addr constant [11 x i8] c"EXPR_FNAME\00", align 1
@.str.32 = private unnamed_addr constant [9 x i8] c"EXPR_DOT\00", align 1
@.str.33 = private unnamed_addr constant [11 x i8] c"EXPR_CLASS\00", align 1
@.str.34 = private unnamed_addr constant [11 x i8] c"EXPR_LABEL\00", align 1
@.str.35 = private unnamed_addr constant [13 x i8] c"EXPR_LABELED\00", align 1
@.str.36 = private unnamed_addr constant [11 x i8] c"EXPR_FITEM\00", align 1
@.str.37 = private unnamed_addr constant [11 x i8] c"EXPR_VALUE\00", align 1
@.str.38 = private unnamed_addr constant [13 x i8] c"EXPR_BEG_ANY\00", align 1
@.str.39 = private unnamed_addr constant [13 x i8] c"EXPR_ARG_ANY\00", align 1
@.str.40 = private unnamed_addr constant [13 x i8] c"EXPR_END_ANY\00", align 1
@.str.41 = private unnamed_addr constant [10 x i8] c"EXPR_NONE\00", align 1

; Function Attrs: inlinehint nounwind sspstrong willreturn memory(none) uwtable
define internal i64 @RB_INT2FIX(i64 noundef %0) #10 {
  %2 = alloca i64, align 8
  %3 = alloca i64, align 8
  %4 = alloca i64, align 8
  %5 = alloca i64, align 8
  %6 = alloca i64, align 8
  %7 = alloca i64, align 8
  store i64 %0, ptr %2, align 8, !tbaa !13
  call void @llvm.lifetime.start.p0(i64 8, ptr %3) #16
  %8 = load i64, ptr %2, align 8, !tbaa !13
  store i64 %8, ptr %3, align 8, !tbaa !13
  call void @llvm.lifetime.start.p0(i64 8, ptr %4) #16
  %9 = load i64, ptr %3, align 8, !tbaa !13
  %10 = shl i64 %9, 1
  %11 = add i64 %10, 1
  store i64 %11, ptr %4, align 8, !tbaa !13
  call void @llvm.lifetime.start.p0(i64 8, ptr %5) #16
  %12 = load i64, ptr %4, align 8, !tbaa !13
  store i64 %12, ptr %5, align 8, !tbaa !13
  call void @llvm.lifetime.start.p0(i64 8, ptr %6) #16
  %13 = load i64, ptr %5, align 8, !tbaa !13
  store i64 %13, ptr %6, align 8, !tbaa !13
  call void @llvm.lifetime.start.p0(i64 8, ptr %7) #16
  %14 = load i64, ptr %6, align 8, !tbaa !13
  store i64 %14, ptr %7, align 8, !tbaa !13
  %15 = load i64, ptr %7, align 8, !tbaa !13
  call void @llvm.lifetime.end.p0(i64 8, ptr %7) #16
  call void @llvm.lifetime.end.p0(i64 8, ptr %6) #16
  call void @llvm.lifetime.end.p0(i64 8, ptr %5) #16
  call void @llvm.lifetime.end.p0(i64 8, ptr %4) #16
  call void @llvm.lifetime.end.p0(i64 8, ptr %3) #16
  ret i64 %15
}

; Function Attrs: inlinehint nounwind sspstrong uwtable
define internal i64 @rbimpl_strlen(ptr noundef nonnull %0) #6 {
  %2 = alloca ptr, align 8
  store ptr %0, ptr %2, align 8, !tbaa !11
  %3 = load ptr, ptr %2, align 8, !tbaa !11
  %4 = call i64 @strlen(ptr noundef %3) #18
  ret i64 %4
}

; Function Attrs: inlinehint nounwind sspstrong uwtable
define internal i64 @rb_int2num_inline(i32 noundef %0) #6 {
  %2 = alloca i64, align 8
  %3 = alloca i32, align 4
  store i32 %0, ptr %3, align 4, !tbaa !24
  %4 = load i32, ptr %3, align 4, !tbaa !24
  %5 = sext i32 %4 to i64
  %6 = icmp slt i64 %5, 4611686018427387904
  br i1 %6, label %7, label %15

7:                                                ; preds = %1
  %8 = load i32, ptr %3, align 4, !tbaa !24
  %9 = sext i32 %8 to i64
  %10 = icmp sge i64 %9, -4611686018427387904
  br i1 %10, label %11, label %15

11:                                               ; preds = %7
  %12 = load i32, ptr %3, align 4, !tbaa !24
  %13 = sext i32 %12 to i64
  %14 = call i64 @RB_INT2FIX(i64 noundef %13) #19
  store i64 %14, ptr %2, align 8
  br label %19

15:                                               ; preds = %7, %1
  %16 = load i32, ptr %3, align 4, !tbaa !24
  %17 = sext i32 %16 to i64
  %18 = call i64 @rb_int2big(i64 noundef %17)
  store i64 %18, ptr %2, align 8
  br label %19

19:                                               ; preds = %15, %11
  %20 = load i64, ptr %2, align 8
  ret i64 %20
}

; Function Attrs: inlinehint nounwind sspstrong uwtable
define internal i64 @rbimpl_usascii_str_new_cstr(ptr noundef nonnull %0) #6 {
  %2 = alloca ptr, align 8
  %3 = alloca i64, align 8
  store ptr %0, ptr %2, align 8, !tbaa !11
  call void @llvm.lifetime.start.p0(i64 8, ptr %3) #16
  %4 = load ptr, ptr %2, align 8, !tbaa !11
  %5 = call i64 @rbimpl_strlen(ptr noundef %4)
  store i64 %5, ptr %3, align 8, !tbaa !13
  %6 = load ptr, ptr %2, align 8, !tbaa !11
  %7 = load i64, ptr %3, align 8, !tbaa !13
  %8 = call i64 @rb_usascii_str_new_static(ptr noundef %6, i64 noundef %7)
  call void @llvm.lifetime.end.p0(i64 8, ptr %3) #16
  ret i64 %8
}

; Function Attrs: nounwind sspstrong uwtable
define void @InitVM_ripper() #0 {
  %1 = alloca i64, align 8
  call void @llvm.lifetime.start.p0(i64 8, ptr %1) #16
  %2 = load i64, ptr @rb_cObject, align 8, !tbaa !13
  %3 = call i64 @rb_define_class(ptr noundef @.str.5, i64 noundef %2)
  store i64 %3, ptr %1, align 8, !tbaa !13
  %4 = load i64, ptr %1, align 8, !tbaa !13
  %5 = call i64 @rbimpl_usascii_str_new_cstr(ptr noundef @.str.7)
  call void @rb_define_const(i64 noundef %4, ptr noundef @.str.6, i64 noundef %5)
  %6 = load i64, ptr %1, align 8, !tbaa !13
  call void @rb_define_alloc_func(i64 noundef %6, ptr noundef @ripper_s_allocate)
  %7 = load i64, ptr %1, align 8, !tbaa !13
  call void @rb_define_method(i64 noundef %7, ptr noundef @.str.8, ptr noundef @ripper_initialize, i32 noundef -1)
  %8 = load i64, ptr %1, align 8, !tbaa !13
  call void @rb_define_method(i64 noundef %8, ptr noundef @.str.9, ptr noundef @ripper_parse, i32 noundef 0)
  %9 = load i64, ptr %1, align 8, !tbaa !13
  call void @rb_define_method(i64 noundef %9, ptr noundef @.str.10, ptr noundef @ripper_column, i32 noundef 0)
  %10 = load i64, ptr %1, align 8, !tbaa !13
  call void @rb_define_method(i64 noundef %10, ptr noundef @.str.11, ptr noundef @ripper_filename, i32 noundef 0)
  %11 = load i64, ptr %1, align 8, !tbaa !13
  call void @rb_define_method(i64 noundef %11, ptr noundef @.str.12, ptr noundef @ripper_lineno, i32 noundef 0)
  %12 = load i64, ptr %1, align 8, !tbaa !13
  call void @rb_define_method(i64 noundef %12, ptr noundef @.str.13, ptr noundef @ripper_state, i32 noundef 0)
  %13 = load i64, ptr %1, align 8, !tbaa !13
  call void @rb_define_method(i64 noundef %13, ptr noundef @.str.14, ptr noundef @ripper_token, i32 noundef 0)
  %14 = load i64, ptr %1, align 8, !tbaa !13
  call void @rb_define_method(i64 noundef %14, ptr noundef @.str.15, ptr noundef @ripper_parser_end_seen_p, i32 noundef 0)
  %15 = load i64, ptr %1, align 8, !tbaa !13
  call void @rb_define_method(i64 noundef %15, ptr noundef @.str.16, ptr noundef @ripper_parser_encoding, i32 noundef 0)
  %16 = load i64, ptr %1, align 8, !tbaa !13
  call void @rb_define_method(i64 noundef %16, ptr noundef @.str.17, ptr noundef @ripper_parser_get_yydebug, i32 noundef 0)
  %17 = load i64, ptr %1, align 8, !tbaa !13
  call void @rb_define_method(i64 noundef %17, ptr noundef @.str.18, ptr noundef @ripper_parser_set_yydebug, i32 noundef 1)
  %18 = load i64, ptr %1, align 8, !tbaa !13
  call void @rb_define_method(i64 noundef %18, ptr noundef @.str.19, ptr noundef @ripper_parser_get_debug_output, i32 noundef 0)
  %19 = load i64, ptr %1, align 8, !tbaa !13
  call void @rb_define_method(i64 noundef %19, ptr noundef @.str.20, ptr noundef @ripper_parser_set_debug_output, i32 noundef 1)
  %20 = load i64, ptr %1, align 8, !tbaa !13
  call void @rb_define_method(i64 noundef %20, ptr noundef @.str.21, ptr noundef @ripper_error_p, i32 noundef 0)
  %21 = load i64, ptr %1, align 8, !tbaa !13
  call void @rb_define_singleton_method(i64 noundef %21, ptr noundef @.str.22, ptr noundef @parser_dedent_string, i32 noundef 2)
  %22 = load i64, ptr %1, align 8, !tbaa !13
  call void @rb_define_private_method(i64 noundef %22, ptr noundef @.str.22, ptr noundef @parser_dedent_string, i32 noundef 2)
  %23 = load i64, ptr %1, align 8, !tbaa !13
  call void @rb_define_singleton_method(i64 noundef %23, ptr noundef @.str.23, ptr noundef @ripper_lex_state_name, i32 noundef 1)
  %24 = load i64, ptr %1, align 8, !tbaa !13
  %25 = call i64 @rb_int2num_inline(i32 noundef 1)
  call void @rb_define_const(i64 noundef %24, ptr noundef @.str.24, i64 noundef %25)
  %26 = load i64, ptr %1, align 8, !tbaa !13
  %27 = call i64 @rb_int2num_inline(i32 noundef 2)
  call void @rb_define_const(i64 noundef %26, ptr noundef @.str.25, i64 noundef %27)
  %28 = load i64, ptr %1, align 8, !tbaa !13
  %29 = call i64 @rb_int2num_inline(i32 noundef 4)
  call void @rb_define_const(i64 noundef %28, ptr noundef @.str.26, i64 noundef %29)
  %30 = load i64, ptr %1, align 8, !tbaa !13
  %31 = call i64 @rb_int2num_inline(i32 noundef 8)
  call void @rb_define_const(i64 noundef %30, ptr noundef @.str.27, i64 noundef %31)
  %32 = load i64, ptr %1, align 8, !tbaa !13
  %33 = call i64 @rb_int2num_inline(i32 noundef 16)
  call void @rb_define_const(i64 noundef %32, ptr noundef @.str.28, i64 noundef %33)
  %34 = load i64, ptr %1, align 8, !tbaa !13
  %35 = call i64 @rb_int2num_inline(i32 noundef 32)
  call void @rb_define_const(i64 noundef %34, ptr noundef @.str.29, i64 noundef %35)
  %36 = load i64, ptr %1, align 8, !tbaa !13
  %37 = call i64 @rb_int2num_inline(i32 noundef 64)
  call void @rb_define_const(i64 noundef %36, ptr noundef @.str.30, i64 noundef %37)
  %38 = load i64, ptr %1, align 8, !tbaa !13
  %39 = call i64 @rb_int2num_inline(i32 noundef 128)
  call void @rb_define_const(i64 noundef %38, ptr noundef @.str.31, i64 noundef %39)
  %40 = load i64, ptr %1, align 8, !tbaa !13
  %41 = call i64 @rb_int2num_inline(i32 noundef 256)
  call void @rb_define_const(i64 noundef %40, ptr noundef @.str.32, i64 noundef %41)
  %42 = load i64, ptr %1, align 8, !tbaa !13
  %43 = call i64 @rb_int2num_inline(i32 noundef 512)
  call void @rb_define_const(i64 noundef %42, ptr noundef @.str.33, i64 noundef %43)
  %44 = load i64, ptr %1, align 8, !tbaa !13
  %45 = call i64 @rb_int2num_inline(i32 noundef 1024)
  call void @rb_define_const(i64 noundef %44, ptr noundef @.str.34, i64 noundef %45)
  %46 = load i64, ptr %1, align 8, !tbaa !13
  %47 = call i64 @rb_int2num_inline(i32 noundef 2048)
  call void @rb_define_const(i64 noundef %46, ptr noundef @.str.35, i64 noundef %47)
  %48 = load i64, ptr %1, align 8, !tbaa !13
  %49 = call i64 @rb_int2num_inline(i32 noundef 4096)
  call void @rb_define_const(i64 noundef %48, ptr noundef @.str.36, i64 noundef %49)
  %50 = load i64, ptr %1, align 8, !tbaa !13
  %51 = call i64 @rb_int2num_inline(i32 noundef 1)
  call void @rb_define_const(i64 noundef %50, ptr noundef @.str.37, i64 noundef %51)
  %52 = load i64, ptr %1, align 8, !tbaa !13
  %53 = call i64 @rb_int2num_inline(i32 noundef 577)
  call void @rb_define_const(i64 noundef %52, ptr noundef @.str.38, i64 noundef %53)
  %54 = load i64, ptr %1, align 8, !tbaa !13
  %55 = call i64 @rb_int2num_inline(i32 noundef 48)
  call void @rb_define_const(i64 noundef %54, ptr noundef @.str.39, i64 noundef %55)
  %56 = load i64, ptr %1, align 8, !tbaa !13
  %57 = call i64 @rb_int2num_inline(i32 noundef 14)
  call void @rb_define_const(i64 noundef %56, ptr noundef @.str.40, i64 noundef %57)
  %58 = load i64, ptr %1, align 8, !tbaa !13
  %59 = call i64 @rb_int2num_inline(i32 noundef 0)
  call void @rb_define_const(i64 noundef %58, ptr noundef @.str.41, i64 noundef %59)
  %60 = load i64, ptr %1, align 8, !tbaa !13
  call void @ripper_init_eventids1_table(i64 noundef %60)
  %61 = load i64, ptr %1, align 8, !tbaa !13
  call void @ripper_init_eventids2_table(i64 noundef %61)
  call void @llvm.lifetime.end.p0(i64 8, ptr %1) #16
  ret void
}