; Function Attrs: nounwind sspstrong uwtable
define void @InitVM_ripper() local_unnamed_addr #0 {
  %1 = load i64, ptr @rb_cObject, align 8, !tbaa !6
  %2 = tail call i64 @rb_define_class(ptr noundef nonnull @.str.5, i64 noundef %1) #5
  %3 = tail call i64 @rb_usascii_str_new_static(ptr noundef nonnull @.str.7, i64 noundef 5) #5
  tail call void @rb_define_const(i64 noundef %2, ptr noundef nonnull @.str.6, i64 noundef %3) #5
  tail call void @rb_define_alloc_func(i64 noundef %2, ptr noundef nonnull @ripper_s_allocate) #5
  tail call void @rb_define_method(i64 noundef %2, ptr noundef nonnull @.str.8, ptr noundef nonnull @ripper_initialize, i32 noundef -1) #5
  tail call void @rb_define_method(i64 noundef %2, ptr noundef nonnull @.str.9, ptr noundef nonnull @ripper_parse, i32 noundef 0) #5
  tail call void @rb_define_method(i64 noundef %2, ptr noundef nonnull @.str.10, ptr noundef nonnull @ripper_column, i32 noundef 0) #5
  tail call void @rb_define_method(i64 noundef %2, ptr noundef nonnull @.str.11, ptr noundef nonnull @ripper_filename, i32 noundef 0) #5
  tail call void @rb_define_method(i64 noundef %2, ptr noundef nonnull @.str.12, ptr noundef nonnull @ripper_lineno, i32 noundef 0) #5
  tail call void @rb_define_method(i64 noundef %2, ptr noundef nonnull @.str.13, ptr noundef nonnull @ripper_state, i32 noundef 0) #5
  tail call void @rb_define_method(i64 noundef %2, ptr noundef nonnull @.str.14, ptr noundef nonnull @ripper_token, i32 noundef 0) #5
  tail call void @rb_define_method(i64 noundef %2, ptr noundef nonnull @.str.15, ptr noundef nonnull @ripper_parser_end_seen_p, i32 noundef 0) #5
  tail call void @rb_define_method(i64 noundef %2, ptr noundef nonnull @.str.16, ptr noundef nonnull @ripper_parser_encoding, i32 noundef 0) #5
  tail call void @rb_define_method(i64 noundef %2, ptr noundef nonnull @.str.17, ptr noundef nonnull @ripper_parser_get_yydebug, i32 noundef 0) #5
  tail call void @rb_define_method(i64 noundef %2, ptr noundef nonnull @.str.18, ptr noundef nonnull @ripper_parser_set_yydebug, i32 noundef 1) #5
  tail call void @rb_define_method(i64 noundef %2, ptr noundef nonnull @.str.19, ptr noundef nonnull @ripper_parser_get_debug_output, i32 noundef 0) #5
  tail call void @rb_define_method(i64 noundef %2, ptr noundef nonnull @.str.20, ptr noundef nonnull @ripper_parser_set_debug_output, i32 noundef 1) #5
  tail call void @rb_define_method(i64 noundef %2, ptr noundef nonnull @.str.21, ptr noundef nonnull @ripper_error_p, i32 noundef 0) #5
  tail call void @rb_define_singleton_method(i64 noundef %2, ptr noundef nonnull @.str.22, ptr noundef nonnull @parser_dedent_string, i32 noundef 2) #5
  tail call void @rb_define_private_method(i64 noundef %2, ptr noundef nonnull @.str.22, ptr noundef nonnull @parser_dedent_string, i32 noundef 2) #5
  tail call void @rb_define_singleton_method(i64 noundef %2, ptr noundef nonnull @.str.23, ptr noundef nonnull @ripper_lex_state_name, i32 noundef 1) #5
  tail call void @rb_define_const(i64 noundef %2, ptr noundef nonnull @.str.24, i64 noundef 3) #5
  tail call void @rb_define_const(i64 noundef %2, ptr noundef nonnull @.str.25, i64 noundef 5) #5
  tail call void @rb_define_const(i64 noundef %2, ptr noundef nonnull @.str.26, i64 noundef 9) #5
  tail call void @rb_define_const(i64 noundef %2, ptr noundef nonnull @.str.27, i64 noundef 17) #5
  tail call void @rb_define_const(i64 noundef %2, ptr noundef nonnull @.str.28, i64 noundef 33) #5
  tail call void @rb_define_const(i64 noundef %2, ptr noundef nonnull @.str.29, i64 noundef 65) #5
  tail call void @rb_define_const(i64 noundef %2, ptr noundef nonnull @.str.30, i64 noundef 129) #5
  tail call void @rb_define_const(i64 noundef %2, ptr noundef nonnull @.str.31, i64 noundef 257) #5
  tail call void @rb_define_const(i64 noundef %2, ptr noundef nonnull @.str.32, i64 noundef 513) #5
  tail call void @rb_define_const(i64 noundef %2, ptr noundef nonnull @.str.33, i64 noundef 1025) #5
  tail call void @rb_define_const(i64 noundef %2, ptr noundef nonnull @.str.34, i64 noundef 2049) #5
  tail call void @rb_define_const(i64 noundef %2, ptr noundef nonnull @.str.35, i64 noundef 4097) #5
  tail call void @rb_define_const(i64 noundef %2, ptr noundef nonnull @.str.36, i64 noundef 8193) #5
  tail call void @rb_define_const(i64 noundef %2, ptr noundef nonnull @.str.37, i64 noundef 3) #5
  tail call void @rb_define_const(i64 noundef %2, ptr noundef nonnull @.str.38, i64 noundef 1155) #5
  tail call void @rb_define_const(i64 noundef %2, ptr noundef nonnull @.str.39, i64 noundef 97) #5
  tail call void @rb_define_const(i64 noundef %2, ptr noundef nonnull @.str.40, i64 noundef 29) #5
  tail call void @rb_define_const(i64 noundef %2, ptr noundef nonnull @.str.41, i64 noundef 1) #5
  tail call void @ripper_init_eventids1_table(i64 noundef %2) #5
  tail call void @ripper_init_eventids2_table(i64 noundef %2) #5
  ret void
}